; Function Attrs: mustprogress nofree norecurse nosync nounwind willreturn memory(argmem: read) uwtable
define internal fastcc { <2 x float>, <2 x float> } @_ZL28generateUnitOrthogonalVectorRK9btVector3(ptr nocapture noundef nonnull readonly align 4 dereferenceable(16) %u) unnamed_addr #13 {
entry:
  %0 = load float, ptr %u, align 4
  %arrayidx.i = getelementptr inbounds i8, ptr %u, i64 4
  %1 = load float, ptr %arrayidx.i, align 4
  %arrayidx.i11 = getelementptr inbounds i8, ptr %u, i64 8
  %2 = load float, ptr %arrayidx.i11, align 4
  %3 = tail call noundef float @llvm.fabs.f32(float %0)
  %4 = tail call noundef float @llvm.fabs.f32(float %1)
  %5 = tail call noundef float @llvm.fabs.f32(float %2)
  %cmp = fcmp ugt float %3, %4
  %cmp6 = fcmp ugt float %3, %5
  %or.cond = or i1 %cmp, %cmp6
  br i1 %or.cond, label %if.else, label %if.then

if.then:                                          ; preds = %entry
  %fneg = fneg float %2
  %retval.sroa.0.4.vec.insert36 = insertelement <2 x float> <float 0.000000e+00, float poison>, float %fneg, i64 1
  %retval.sroa.11.12.vec.insert48 = insertelement <2 x float> <float poison, float 0.000000e+00>, float %1, i64 0
  br label %if.end22

if.else:                                          ; preds = %entry
  %cmp9 = fcmp ugt float %4, %3
  %cmp11 = fcmp ugt float %4, %5
  %or.cond10 = or i1 %cmp9, %cmp11
  br i1 %or.cond10, label %if.else17, label %if.then12

if.then12:                                        ; preds = %if.else
  %fneg15 = fneg float %2
  %retval.sroa.0.4.vec.insert34 = insertelement <2 x float> <float poison, float 0.000000e+00>, float %fneg15, i64 0
  %retval.sroa.11.12.vec.insert46 = insertelement <2 x float> <float poison, float 0.000000e+00>, float %0, i64 0
  br label %if.end22

if.else17:                                        ; preds = %if.else
  %fneg20 = fneg float %1
  %retval.sroa.0.0.vec.insert25 = insertelement <2 x float> poison, float %fneg20, i64 0
  %retval.sroa.0.4.vec.insert32 = insertelement <2 x float> %retval.sroa.0.0.vec.insert25, float %0, i64 1
  br label %if.end22

if.end22:                                         ; preds = %if.then12, %if.else17, %if.then
  %retval.sroa.0.0 = phi <2 x float> [ %retval.sroa.0.4.vec.insert32, %if.else17 ], [ %retval.sroa.0.4.vec.insert34, %if.then12 ], [ %retval.sroa.0.4.vec.insert36, %if.then ]
  %retval.sroa.11.0 = phi <2 x float> [ zeroinitializer, %if.else17 ], [ %retval.sroa.11.12.vec.insert46, %if.then12 ], [ %retval.sroa.11.12.vec.insert48, %if.then ]
  %6 = fmul <2 x float> %retval.sroa.0.0, %retval.sroa.0.0
  %mul8.i.i.i.i = extractelement <2 x float> %6, i64 1
  %7 = extractelement <2 x float> %retval.sroa.0.0, i64 0
  %8 = tail call float @llvm.fmuladd.f32(float %7, float %7, float %mul8.i.i.i.i)
  %retval.sroa.11.8.vec.extract = extractelement <2 x float> %retval.sroa.11.0, i64 0
  %9 = tail call noundef float @llvm.fmuladd.f32(float %retval.sroa.11.8.vec.extract, float %retval.sroa.11.8.vec.extract, float %8)
  %sqrt.i.i = tail call noundef float @llvm.sqrt.f32(float %9)
  %div.i.i = fdiv float 1.000000e+00, %sqrt.i.i
  %10 = insertelement <2 x float> poison, float %div.i.i, i64 0
  %11 = shufflevector <2 x float> %10, <2 x float> poison, <2 x i32> zeroinitializer
  %12 = fmul <2 x float> %retval.sroa.0.0, %11
  %mul7.i.i.i = fmul float %retval.sroa.11.8.vec.extract, %div.i.i
  %retval.sroa.11.8.vec.insert = insertelement <2 x float> %retval.sroa.11.0, float %mul7.i.i.i, i64 0
  %.fca.0.insert = insertvalue { <2 x float>, <2 x float> } poison, <2 x float> %12, 0
  %.fca.1.insert = insertvalue { <2 x float>, <2 x float> } %.fca.0.insert, <2 x float> %retval.sroa.11.8.vec.insert, 1
  ret { <2 x float>, <2 x float> } %.fca.1.insert
}